target datalayout = "e-m:e-p270:32:32-p271:32:32-p272:64:64-i64:64-i128:128-f80:128-n8:16:32:64-S128"
target triple = "x86_64-unknown-linux-gnu"

%"class.QuantLib::ExponentialJump1dMesher" = type { %"class.QuantLib::Fdm1dMesher", double, double, double }
%"class.QuantLib::Fdm1dMesher" = type { ptr, %"class.std::vector", %"class.std::vector", %"class.std::vector" }
%"class.std::vector" = type { %"struct.std::_Vector_base" }
%"struct.std::_Vector_base" = type { %"struct.std::_Vector_base<double, std::allocator<double>>::_Vector_impl" }
%"struct.std::_Vector_base<double, std::allocator<double>>::_Vector_impl" = type { %"struct.std::_Vector_base<double, std::allocator<double>>::_Vector_impl_data" }
%"struct.std::_Vector_base<double, std::allocator<double>>::_Vector_impl_data" = type { ptr, ptr, ptr }
%"class.QuantLib::GammaFunction" = type { i8 }

; Function Attrs: mustprogress uwtable
define noundef double @_ZNK8QuantLib23ExponentialJump1dMesher15jumpSizeDensityEdd(ptr noundef nonnull align 8 dereferenceable(104) %this, double noundef %x, double noundef %t) #0 align 2 {
entry:
  %this.addr = alloca ptr, align 8
  %x.addr = alloca double, align 8
  %t.addr = alloca double, align 8
  %a = alloca double, align 8
  %norm = alloca double, align 8
  %gammaValue = alloca double, align 8
  %ref.tmp = alloca %"class.QuantLib::GammaFunction", align 1
  store ptr %this, ptr %this.addr, align 8, !tbaa !3
  store double %x, ptr %x.addr, align 8, !tbaa !9
  store double %t, ptr %t.addr, align 8, !tbaa !9
  %this1 = load ptr, ptr %this.addr, align 8
  call void @llvm.lifetime.start.p0(i64 8, ptr %a) #16
  %jumpIntensity_ = getelementptr inbounds nuw %"class.QuantLib::ExponentialJump1dMesher", ptr %this1, i32 0, i32 2
  %0 = load double, ptr %jumpIntensity_, align 8, !tbaa !20
  %beta_ = getelementptr inbounds nuw %"class.QuantLib::ExponentialJump1dMesher", ptr %this1, i32 0, i32 1
  %1 = load double, ptr %beta_, align 8, !tbaa !13
  %div = fdiv double %0, %1
  %sub = fsub double 1.000000e+00, %div
  store double %sub, ptr %a, align 8, !tbaa !9
  call void @llvm.lifetime.start.p0(i64 8, ptr %norm) #16
  %jumpIntensity_2 = getelementptr inbounds nuw %"class.QuantLib::ExponentialJump1dMesher", ptr %this1, i32 0, i32 2
  %2 = load double, ptr %jumpIntensity_2, align 8, !tbaa !20
  %fneg = fneg double %2
  %3 = load double, ptr %t.addr, align 8, !tbaa !9
  %mul = fmul double %fneg, %3
  %call = call double @exp(double noundef %mul) #16, !tbaa !22
  %sub3 = fsub double 1.000000e+00, %call
  store double %sub3, ptr %norm, align 8, !tbaa !9
  call void @llvm.lifetime.start.p0(i64 8, ptr %gammaValue) #16
  call void @llvm.lifetime.start.p0(i64 1, ptr %ref.tmp) #16
  %jumpIntensity_4 = getelementptr inbounds nuw %"class.QuantLib::ExponentialJump1dMesher", ptr %this1, i32 0, i32 2
  %4 = load double, ptr %jumpIntensity_4, align 8, !tbaa !20
  %beta_5 = getelementptr inbounds nuw %"class.QuantLib::ExponentialJump1dMesher", ptr %this1, i32 0, i32 1
  %5 = load double, ptr %beta_5, align 8, !tbaa !13
  %div6 = fdiv double %4, %5
  %sub7 = fsub double 1.000000e+00, %div6
  %call8 = call noundef double @_ZNK8QuantLib13GammaFunction8logValueEd(ptr noundef nonnull align 1 dereferenceable(1) %ref.tmp, double noundef %sub7)
  %call9 = call double @exp(double noundef %call8) #16, !tbaa !22
  call void @llvm.lifetime.end.p0(i64 1, ptr %ref.tmp) #16
  store double %call9, ptr %gammaValue, align 8, !tbaa !9
  %jumpIntensity_10 = getelementptr inbounds nuw %"class.QuantLib::ExponentialJump1dMesher", ptr %this1, i32 0, i32 2
  %6 = load double, ptr %jumpIntensity_10, align 8, !tbaa !20
  %7 = load double, ptr %gammaValue, align 8, !tbaa !9
  %mul11 = fmul double %6, %7
  %8 = load double, ptr %norm, align 8, !tbaa !9
  %div12 = fdiv double %mul11, %8
  %9 = load double, ptr %a, align 8, !tbaa !9
  %10 = load double, ptr %x.addr, align 8, !tbaa !9
  %beta_13 = getelementptr inbounds nuw %"class.QuantLib::ExponentialJump1dMesher", ptr %this1, i32 0, i32 1
  %11 = load double, ptr %beta_13, align 8, !tbaa !13
  %12 = load double, ptr %t.addr, align 8, !tbaa !9
  %mul14 = fmul double %11, %12
  %call15 = call double @exp(double noundef %mul14) #16, !tbaa !22
  %mul16 = fmul double %10, %call15
  %eta_ = getelementptr inbounds nuw %"class.QuantLib::ExponentialJump1dMesher", ptr %this1, i32 0, i32 3
  %13 = load double, ptr %eta_, align 8, !tbaa !21
  %mul17 = fmul double %mul16, %13
  %call18 = call noundef double @_ZN8QuantLib23incompleteGammaFunctionEdddi(double noundef %9, double noundef %mul17, double noundef 1.000000e-13, i32 noundef 100)
  %14 = load double, ptr %a, align 8, !tbaa !9
  %15 = load double, ptr %x.addr, align 8, !tbaa !9
  %eta_19 = getelementptr inbounds nuw %"class.QuantLib::ExponentialJump1dMesher", ptr %this1, i32 0, i32 3
  %16 = load double, ptr %eta_19, align 8, !tbaa !21
  %mul20 = fmul double %15, %16
  %call21 = call noundef double @_ZN8QuantLib23incompleteGammaFunctionEdddi(double noundef %14, double noundef %mul20, double noundef 1.000000e-13, i32 noundef 100)
  %sub22 = fsub double %call18, %call21
  %mul23 = fmul double %div12, %sub22
  %eta_24 = getelementptr inbounds nuw %"class.QuantLib::ExponentialJump1dMesher", ptr %this1, i32 0, i32 3
  %17 = load double, ptr %eta_24, align 8, !tbaa !21
  %jumpIntensity_25 = getelementptr inbounds nuw %"class.QuantLib::ExponentialJump1dMesher", ptr %this1, i32 0, i32 2
  %18 = load double, ptr %jumpIntensity_25, align 8, !tbaa !20
  %beta_26 = getelementptr inbounds nuw %"class.QuantLib::ExponentialJump1dMesher", ptr %this1, i32 0, i32 1
  %19 = load double, ptr %beta_26, align 8, !tbaa !13
  %div27 = fdiv double %18, %19
  %call28 = call double @pow(double noundef %17, double noundef %div27) #16, !tbaa !22
  %mul29 = fmul double %mul23, %call28
  %beta_30 = getelementptr inbounds nuw %"class.QuantLib::ExponentialJump1dMesher", ptr %this1, i32 0, i32 1
  %20 = load double, ptr %beta_30, align 8, !tbaa !13
  %21 = load double, ptr %x.addr, align 8, !tbaa !9
  %22 = load double, ptr %a, align 8, !tbaa !9
  %call31 = call double @pow(double noundef %21, double noundef %22) #16, !tbaa !22
  %mul32 = fmul double %20, %call31
  %div33 = fdiv double %mul29, %mul32
  call void @llvm.lifetime.end.p0(i64 8, ptr %gammaValue) #16
  call void @llvm.lifetime.end.p0(i64 8, ptr %norm) #16
  call void @llvm.lifetime.end.p0(i64 8, ptr %a) #16
  ret double %div33
}