; Function Attrs: mustprogress uwtable
define noundef double @_ZNK8QuantLib23ExponentialJump1dMesher15jumpSizeDensityEdd(ptr nocapture noundef nonnull readonly align 8 dereferenceable(104) %this, double noundef %x, double noundef %t) local_unnamed_addr #0 align 2 {
entry:
  %ref.tmp = alloca %"class.QuantLib::GammaFunction", align 1
  %jumpIntensity_ = getelementptr inbounds nuw i8, ptr %this, i64 88
  %0 = load double, ptr %jumpIntensity_, align 8, !tbaa !16
  %beta_ = getelementptr inbounds nuw i8, ptr %this, i64 80
  %1 = load double, ptr %beta_, align 8, !tbaa !6
  %div = fdiv double %0, %1
  %sub = fsub double 1.000000e+00, %div
  %fneg = fneg double %0
  %mul = fmul double %t, %fneg
  %call = tail call double @exp(double noundef %mul) #19, !tbaa !24
  %sub3 = fsub double 1.000000e+00, %call
  call void @llvm.lifetime.start.p0(i64 1, ptr nonnull %ref.tmp) #19
  %call8 = call noundef double @_ZNK8QuantLib13GammaFunction8logValueEd(ptr noundef nonnull align 1 dereferenceable(1) %ref.tmp, double noundef %sub)
  %call9 = call double @exp(double noundef %call8) #19, !tbaa !24
  call void @llvm.lifetime.end.p0(i64 1, ptr nonnull %ref.tmp) #19
  %2 = load double, ptr %jumpIntensity_, align 8, !tbaa !16
  %mul11 = fmul double %call9, %2
  %div12 = fdiv double %mul11, %sub3
  %3 = load double, ptr %beta_, align 8, !tbaa !6
  %mul14 = fmul double %t, %3
  %call15 = call double @exp(double noundef %mul14) #19, !tbaa !24
  %mul16 = fmul double %x, %call15
  %eta_ = getelementptr inbounds nuw i8, ptr %this, i64 96
  %4 = load double, ptr %eta_, align 8, !tbaa !17
  %mul17 = fmul double %mul16, %4
  %call18 = call noundef double @_ZN8QuantLib23incompleteGammaFunctionEdddi(double noundef %sub, double noundef %mul17, double noundef 1.000000e-13, i32 noundef 100)
  %5 = load double, ptr %eta_, align 8, !tbaa !17
  %mul20 = fmul double %x, %5
  %call21 = call noundef double @_ZN8QuantLib23incompleteGammaFunctionEdddi(double noundef %sub, double noundef %mul20, double noundef 1.000000e-13, i32 noundef 100)
  %sub22 = fsub double %call18, %call21
  %mul23 = fmul double %div12, %sub22
  %6 = load double, ptr %eta_, align 8, !tbaa !17
  %7 = load double, ptr %jumpIntensity_, align 8, !tbaa !16
  %8 = load double, ptr %beta_, align 8, !tbaa !6
  %div27 = fdiv double %7, %8
  %call28 = call double @pow(double noundef %6, double noundef %div27) #19, !tbaa !24
  %mul29 = fmul double %mul23, %call28
  %call31 = call double @pow(double noundef %x, double noundef %sub) #19, !tbaa !24
  %mul32 = fmul double %8, %call31
  %div33 = fdiv double %mul29, %mul32
  ret double %div33
}